target datalayout = "e-m:e-p270:32:32-p271:32:32-p272:64:64-i64:64-i128:128-f80:128-n8:16:32:64-S128"
target triple = "x86_64-pc-linux-gnu"

%struct.lean_object = type { i32, i32 }
%struct.lean_string_object = type { %struct.lean_object, i64, i64, i64, [0 x i8] }
%struct.lean_ctor_object = type { %struct.lean_object, [0 x ptr] }

; Function Attrs: inlinehint nounwind uwtable
define internal ptr @lean_to_string(ptr noundef %0) #0 {
  %2 = alloca ptr, align 8
  store ptr %0, ptr %2, align 8, !tbaa !8
  %3 = load ptr, ptr %2, align 8, !tbaa !8
  ret ptr %3
}

; Function Attrs: inlinehint nounwind uwtable
define internal ptr @lean_to_ctor(ptr noundef %0) #0 {
  %2 = alloca ptr, align 8
  store ptr %0, ptr %2, align 8, !tbaa !8
  %3 = load ptr, ptr %2, align 8, !tbaa !8
  ret ptr %3
}

; Function Attrs: alwaysinline nounwind uwtable
define internal void @lean_dec_ref(ptr noundef %0) #1 {
  %2 = alloca ptr, align 8
  store ptr %0, ptr %2, align 8, !tbaa !8
  %3 = load ptr, ptr %2, align 8, !tbaa !8
  %4 = getelementptr inbounds nuw %struct.lean_object, ptr %3, i32 0, i32 0
  %5 = load i32, ptr %4, align 4, !tbaa !15
  %6 = icmp sgt i32 %5, 1
  %7 = zext i1 %6 to i32
  %8 = sext i32 %7 to i64
  %9 = call i64 @llvm.expect.i64(i64 %8, i64 1)
  %10 = icmp ne i64 %9, 0
  br i1 %10, label %11, label %16

11:                                               ; preds = %1
  %12 = load ptr, ptr %2, align 8, !tbaa !8
  %13 = getelementptr inbounds nuw %struct.lean_object, ptr %12, i32 0, i32 0
  %14 = load i32, ptr %13, align 4, !tbaa !15
  %15 = add i32 %14, -1
  store i32 %15, ptr %13, align 4, !tbaa !15
  br label %24

16:                                               ; preds = %1
  %17 = load ptr, ptr %2, align 8, !tbaa !8
  %18 = getelementptr inbounds nuw %struct.lean_object, ptr %17, i32 0, i32 0
  %19 = load i32, ptr %18, align 4, !tbaa !15
  %20 = icmp ne i32 %19, 0
  br i1 %20, label %21, label %23

21:                                               ; preds = %16
  %22 = load ptr, ptr %2, align 8, !tbaa !8
  call void @lean_dec_ref_cold(ptr noundef %22)
  br label %23

23:                                               ; preds = %21, %16
  br label %24

24:                                               ; preds = %23, %11
  ret void
}

; Function Attrs: alwaysinline nounwind uwtable
define internal zeroext i1 @lean_is_scalar(ptr noundef %0) #1 {
  %2 = alloca ptr, align 8
  store ptr %0, ptr %2, align 8, !tbaa !8
  %3 = load ptr, ptr %2, align 8, !tbaa !8
  %4 = ptrtoint ptr %3 to i64
  %5 = and i64 %4, 1
  %6 = icmp eq i64 %5, 1
  ret i1 %6
}

; Function Attrs: alwaysinline nounwind uwtable
define internal zeroext i1 @lean_nat_eq(ptr noundef %0, ptr noundef %1) #1 {
  %3 = alloca i1, align 1
  %4 = alloca ptr, align 8
  %5 = alloca ptr, align 8
  store ptr %0, ptr %4, align 8, !tbaa !8
  store ptr %1, ptr %5, align 8, !tbaa !8
  %6 = load ptr, ptr %4, align 8, !tbaa !8
  %7 = call zeroext i1 @lean_is_scalar(ptr noundef %6)
  br i1 %7, label %8, label %11

8:                                                ; preds = %2
  %9 = load ptr, ptr %5, align 8, !tbaa !8
  %10 = call zeroext i1 @lean_is_scalar(ptr noundef %9)
  br label %11

11:                                               ; preds = %8, %2
  %12 = phi i1 [ false, %2 ], [ %10, %8 ]
  %13 = zext i1 %12 to i32
  %14 = sext i32 %13 to i64
  %15 = call i64 @llvm.expect.i64(i64 %14, i64 1)
  %16 = icmp ne i64 %15, 0
  br i1 %16, label %17, label %21

17:                                               ; preds = %11
  %18 = load ptr, ptr %4, align 8, !tbaa !8
  %19 = load ptr, ptr %5, align 8, !tbaa !8
  %20 = icmp eq ptr %18, %19
  store i1 %20, ptr %3, align 1
  br label %25

21:                                               ; preds = %11
  %22 = load ptr, ptr %4, align 8, !tbaa !8
  %23 = load ptr, ptr %5, align 8, !tbaa !8
  %24 = call zeroext i1 @lean_nat_big_eq(ptr noundef %22, ptr noundef %23)
  store i1 %24, ptr %3, align 1
  br label %25

25:                                               ; preds = %21, %17
  %26 = load i1, ptr %3, align 1
  ret i1 %26
}

; Function Attrs: inlinehint nounwind uwtable
define internal ptr @lean_box(i64 noundef %0) #0 {
  %2 = alloca i64, align 8
  store i64 %0, ptr %2, align 8, !tbaa !4
  %3 = load i64, ptr %2, align 8, !tbaa !4
  %4 = shl i64 %3, 1
  %5 = or i64 %4, 1
  %6 = inttoptr i64 %5 to ptr
  ret ptr %6
}

; Function Attrs: inlinehint nounwind uwtable
define internal i64 @lean_string_size(ptr noundef %0) #0 {
  %2 = alloca ptr, align 8
  store ptr %0, ptr %2, align 8, !tbaa !8
  %3 = load ptr, ptr %2, align 8, !tbaa !8
  %4 = call ptr @lean_to_string(ptr noundef %3)
  %5 = getelementptr inbounds nuw %struct.lean_string_object, ptr %4, i32 0, i32 1
  %6 = load i64, ptr %5, align 8, !tbaa !4
  ret i64 %6
}

; Function Attrs: inlinehint nounwind uwtable
define internal ptr @lean_ctor_obj_cptr(ptr noundef %0) #0 {
  %2 = alloca ptr, align 8
  store ptr %0, ptr %2, align 8, !tbaa !8
  %3 = load ptr, ptr %2, align 8, !tbaa !8
  %4 = call ptr @lean_to_ctor(ptr noundef %3)
  %5 = getelementptr inbounds nuw %struct.lean_ctor_object, ptr %4, i32 0, i32 1
  %6 = getelementptr inbounds [0 x ptr], ptr %5, i64 0, i64 0
  ret ptr %6
}

; Function Attrs: alwaysinline nounwind uwtable
define internal void @lean_dec(ptr noundef %0) #1 {
  %2 = alloca ptr, align 8
  store ptr %0, ptr %2, align 8, !tbaa !8
  %3 = load ptr, ptr %2, align 8, !tbaa !8
  %4 = call zeroext i1 @lean_is_scalar(ptr noundef %3)
  br i1 %4, label %7, label %5

5:                                                ; preds = %1
  %6 = load ptr, ptr %2, align 8, !tbaa !8
  call void @lean_dec_ref(ptr noundef %6)
  br label %7

7:                                                ; preds = %5, %1
  ret void
}

; Function Attrs: alwaysinline nounwind uwtable
define internal zeroext i8 @lean_nat_dec_eq(ptr noundef %0, ptr noundef %1) #1 {
  %3 = alloca ptr, align 8
  %4 = alloca ptr, align 8
  store ptr %0, ptr %3, align 8, !tbaa !8
  store ptr %1, ptr %4, align 8, !tbaa !8
  %5 = load ptr, ptr %3, align 8, !tbaa !8
  %6 = load ptr, ptr %4, align 8, !tbaa !8
  %7 = call zeroext i1 @lean_nat_eq(ptr noundef %5, ptr noundef %6)
  %8 = zext i1 %7 to i8
  ret i8 %8
}

; Function Attrs: inlinehint nounwind uwtable
define internal ptr @lean_string_utf8_byte_size(ptr noundef %0) #0 {
  %2 = alloca ptr, align 8
  store ptr %0, ptr %2, align 8, !tbaa !8
  %3 = load ptr, ptr %2, align 8, !tbaa !8
  %4 = call i64 @lean_string_size(ptr noundef %3)
  %5 = sub i64 %4, 1
  %6 = call ptr @lean_box(i64 noundef %5)
  ret ptr %6
}

; Function Attrs: inlinehint nounwind uwtable
define internal ptr @lean_ctor_get(ptr noundef %0, i32 noundef %1) #0 {
  %3 = alloca ptr, align 8
  %4 = alloca i32, align 4
  store ptr %0, ptr %3, align 8, !tbaa !8
  store i32 %1, ptr %4, align 4, !tbaa !11
  %5 = load ptr, ptr %3, align 8, !tbaa !8
  %6 = call ptr @lean_ctor_obj_cptr(ptr noundef %5)
  %7 = load i32, ptr %4, align 4, !tbaa !11
  %8 = zext i32 %7 to i64
  %9 = getelementptr inbounds nuw ptr, ptr %6, i64 %8
  %10 = load ptr, ptr %9, align 8, !tbaa !8
  ret ptr %10
}

; Function Attrs: nounwind uwtable
define zeroext i8 @l_Lean_FileMap_rangeOverlapsRequestedRange(ptr noundef %0, ptr noundef %1, ptr noundef %2, i8 noundef zeroext %3, i8 noundef zeroext %4) #2 {
  %6 = alloca i8, align 1
  %7 = alloca ptr, align 8
  %8 = alloca ptr, align 8
  %9 = alloca ptr, align 8
  %10 = alloca i8, align 1
  %11 = alloca i8, align 1
  %12 = alloca ptr, align 8
  %13 = alloca ptr, align 8
  %14 = alloca ptr, align 8
  %15 = alloca i8, align 1
  %16 = alloca i8, align 1
  %17 = alloca i8, align 1
  %18 = alloca i8, align 1
  store ptr %0, ptr %7, align 8, !tbaa !8
  store ptr %1, ptr %8, align 8, !tbaa !8
  store ptr %2, ptr %9, align 8, !tbaa !8
  store i8 %3, ptr %10, align 1, !tbaa !10
  store i8 %4, ptr %11, align 1, !tbaa !10
  br label %19

19:                                               ; preds = %5
  %20 = load i8, ptr %10, align 1, !tbaa !10
  %21 = zext i8 %20 to i32
  %22 = icmp eq i32 %21, 0
  br i1 %22, label %23, label %40

23:                                               ; preds = %19
  call void @llvm.lifetime.start.p0(i64 8, ptr %12) #7
  call void @llvm.lifetime.start.p0(i64 8, ptr %13) #7
  call void @llvm.lifetime.start.p0(i64 8, ptr %14) #7
  call void @llvm.lifetime.start.p0(i64 1, ptr %15) #7
  call void @llvm.lifetime.start.p0(i64 1, ptr %16) #7
  %24 = load ptr, ptr %8, align 8, !tbaa !8
  %25 = call ptr @lean_ctor_get(ptr noundef %24, i32 noundef 1)
  store ptr %25, ptr %12, align 8, !tbaa !8
  %26 = load ptr, ptr %7, align 8, !tbaa !8
  %27 = call ptr @lean_ctor_get(ptr noundef %26, i32 noundef 0)
  store ptr %27, ptr %13, align 8, !tbaa !8
  %28 = load ptr, ptr %13, align 8, !tbaa !8
  %29 = call ptr @lean_string_utf8_byte_size(ptr noundef %28)
  store ptr %29, ptr %14, align 8, !tbaa !8
  %30 = load ptr, ptr %12, align 8, !tbaa !8
  %31 = load ptr, ptr %14, align 8, !tbaa !8
  %32 = call zeroext i8 @lean_nat_dec_eq(ptr noundef %30, ptr noundef %31)
  store i8 %32, ptr %15, align 1, !tbaa !10
  %33 = load ptr, ptr %14, align 8, !tbaa !8
  call void @lean_dec(ptr noundef %33)
  %34 = load ptr, ptr %8, align 8, !tbaa !8
  %35 = load ptr, ptr %9, align 8, !tbaa !8
  %36 = load i8, ptr %15, align 1, !tbaa !10
  %37 = load i8, ptr %11, align 1, !tbaa !10
  %38 = call zeroext i8 @l_String_Range_overlaps(ptr noundef %34, ptr noundef %35, i8 noundef zeroext %36, i8 noundef zeroext %37)
  store i8 %38, ptr %16, align 1, !tbaa !10
  %39 = load i8, ptr %16, align 1, !tbaa !10
  store i8 %39, ptr %6, align 1
  call void @llvm.lifetime.end.p0(i64 1, ptr %16) #7
  call void @llvm.lifetime.end.p0(i64 1, ptr %15) #7
  call void @llvm.lifetime.end.p0(i64 8, ptr %14) #7
  call void @llvm.lifetime.end.p0(i64 8, ptr %13) #7
  call void @llvm.lifetime.end.p0(i64 8, ptr %12) #7
  br label %47

40:                                               ; preds = %19
  call void @llvm.lifetime.start.p0(i64 1, ptr %17) #7
  call void @llvm.lifetime.start.p0(i64 1, ptr %18) #7
  store i8 1, ptr %17, align 1, !tbaa !10
  %41 = load ptr, ptr %8, align 8, !tbaa !8
  %42 = load ptr, ptr %9, align 8, !tbaa !8
  %43 = load i8, ptr %17, align 1, !tbaa !10
  %44 = load i8, ptr %11, align 1, !tbaa !10
  %45 = call zeroext i8 @l_String_Range_overlaps(ptr noundef %41, ptr noundef %42, i8 noundef zeroext %43, i8 noundef zeroext %44)
  store i8 %45, ptr %18, align 1, !tbaa !10
  %46 = load i8, ptr %18, align 1, !tbaa !10
  store i8 %46, ptr %6, align 1
  call void @llvm.lifetime.end.p0(i64 1, ptr %18) #7
  call void @llvm.lifetime.end.p0(i64 1, ptr %17) #7
  br label %47

47:                                               ; preds = %40, %23
  %48 = load i8, ptr %6, align 1
  ret i8 %48
}