; Function Attrs: nounwind uwtable
define zeroext i8 @l_Lean_FileMap_rangeOverlapsRequestedRange(ptr noundef readonly captures(none) %0, ptr noundef %1, ptr noundef %2, i8 noundef zeroext %3, i8 noundef zeroext %4) local_unnamed_addr #1 {
  %6 = icmp eq i8 %3, 0
  br i1 %6, label %7, label %22

7:                                                ; preds = %5
  %8 = getelementptr inbounds nuw i8, ptr %1, i64 16
  %9 = load ptr, ptr %8, align 8, !tbaa !9
  %10 = getelementptr inbounds nuw i8, ptr %0, i64 8
  %11 = load ptr, ptr %10, align 8, !tbaa !9
  %12 = getelementptr i8, ptr %11, i64 8
  %.val = load i64, ptr %12, align 8, !tbaa !12
  %13 = shl i64 %.val, 1
  %14 = add i64 %13, -1
  %15 = inttoptr i64 %14 to ptr
  %16 = ptrtoint ptr %9 to i64
  %17 = and i64 %16, 1
  %.not = icmp eq i64 %17, 0
  br i1 %.not, label %.critedge.i, label %18, !prof !14

18:                                               ; preds = %7
  %19 = icmp eq ptr %9, %15
  br label %lean_dec.exit

.critedge.i:                                      ; preds = %7
  %20 = tail call zeroext i1 @lean_nat_big_eq(ptr noundef %9, ptr noundef nonnull %15) #6
  br label %lean_dec.exit

lean_dec.exit:                                    ; preds = %.critedge.i, %18
  %.0.i = phi i1 [ %19, %18 ], [ %20, %.critedge.i ]
  %21 = zext i1 %.0.i to i8
  br label %22

22:                                               ; preds = %5, %lean_dec.exit
  %.sink = phi i8 [ %21, %lean_dec.exit ], [ 1, %5 ]
  %23 = tail call zeroext i8 @l_String_Range_overlaps(ptr noundef %1, ptr noundef %2, i8 noundef zeroext %.sink, i8 noundef zeroext %4) #6
  ret i8 %23
}